target datalayout = "e-m:e-p270:32:32-p271:32:32-p272:64:64-i64:64-i128:128-f80:128-n8:16:32:64-S128"
target triple = "x86_64-pc-linux-gnu"

%struct.ec_method_st = type { ptr, ptr, ptr, ptr, ptr, ptr, ptr, ptr, ptr, ptr, ptr }
%struct.ec_group_st = type { ptr, ptr, %struct.bignum_st, %struct.bignum_st, i32, ptr, %struct.bignum_st, %struct.bignum_st, %struct.bignum_st, i32, ptr, %struct.bignum_st }
%struct.bignum_st = type { ptr, i32, i32, i32, i32 }

; Function Attrs: nounwind uwtable
define hidden void @EC_POINT_free(ptr noundef %0) #1 {
  %2 = alloca ptr, align 8
  store ptr %0, ptr %2, align 8, !tbaa !29
  %3 = load ptr, ptr %2, align 8, !tbaa !29
  %4 = icmp ne ptr %3, null
  br i1 %4, label %6, label %5

5:                                                ; preds = %1
  br label %9

6:                                                ; preds = %1
  %7 = load ptr, ptr %2, align 8, !tbaa !29
  call void @ec_GFp_simple_point_finish(ptr noundef %7)
  %8 = load ptr, ptr %2, align 8, !tbaa !29
  call void @free(ptr noundef %8) #7
  br label %9

9:                                                ; preds = %6, %5
  ret void
}

; Function Attrs: nounwind uwtable
define hidden void @EC_GROUP_free(ptr noundef %0) #1 {
  %2 = alloca ptr, align 8
  store ptr %0, ptr %2, align 8, !tbaa !13
  %3 = load ptr, ptr %2, align 8, !tbaa !13
  %4 = icmp ne ptr %3, null
  br i1 %4, label %6, label %5

5:                                                ; preds = %1
  br label %29

6:                                                ; preds = %1
  %7 = load ptr, ptr %2, align 8, !tbaa !13
  %8 = getelementptr inbounds nuw %struct.ec_group_st, ptr %7, i32 0, i32 0
  %9 = load ptr, ptr %8, align 8, !tbaa !15
  %10 = getelementptr inbounds nuw %struct.ec_method_st, ptr %9, i32 0, i32 1
  %11 = load ptr, ptr %10, align 8, !tbaa !27
  %12 = icmp ne ptr %11, null
  br i1 %12, label %13, label %20

13:                                               ; preds = %6
  %14 = load ptr, ptr %2, align 8, !tbaa !13
  %15 = getelementptr inbounds nuw %struct.ec_group_st, ptr %14, i32 0, i32 0
  %16 = load ptr, ptr %15, align 8, !tbaa !15
  %17 = getelementptr inbounds nuw %struct.ec_method_st, ptr %16, i32 0, i32 1
  %18 = load ptr, ptr %17, align 8, !tbaa !27
  %19 = load ptr, ptr %2, align 8, !tbaa !13
  call void %18(ptr noundef %19)
  br label %20

20:                                               ; preds = %13, %6
  %21 = load ptr, ptr %2, align 8, !tbaa !13
  %22 = getelementptr inbounds nuw %struct.ec_group_st, ptr %21, i32 0, i32 1
  %23 = load ptr, ptr %22, align 8, !tbaa !28
  call void @EC_POINT_free(ptr noundef %23)
  %24 = load ptr, ptr %2, align 8, !tbaa !13
  %25 = getelementptr inbounds nuw %struct.ec_group_st, ptr %24, i32 0, i32 2
  call void @BN_free(ptr noundef %25)
  %26 = load ptr, ptr %2, align 8, !tbaa !13
  %27 = getelementptr inbounds nuw %struct.ec_group_st, ptr %26, i32 0, i32 3
  call void @BN_free(ptr noundef %27)
  %28 = load ptr, ptr %2, align 8, !tbaa !13
  call void @free(ptr noundef %28) #7
  br label %29

29:                                               ; preds = %20, %5
  ret void
}

; Function Attrs: nounwind uwtable
define hidden ptr @EC_GROUP_dup(ptr noundef %0) #1 {
  %2 = alloca ptr, align 8
  %3 = alloca ptr, align 8
  %4 = alloca ptr, align 8
  %5 = alloca i32, align 4
  %6 = alloca i32, align 4
  store ptr %0, ptr %3, align 8, !tbaa !13
  call void @llvm.lifetime.start.p0(i64 8, ptr %4) #7
  store ptr null, ptr %4, align 8, !tbaa !13
  call void @llvm.lifetime.start.p0(i64 4, ptr %5) #7
  store i32 0, ptr %5, align 4, !tbaa !33
  %7 = load ptr, ptr %3, align 8, !tbaa !13
  %8 = icmp eq ptr %7, null
  br i1 %8, label %9, label %10

9:                                                ; preds = %1
  store ptr null, ptr %2, align 8
  store i32 1, ptr %6, align 4
  br label %32

10:                                               ; preds = %1
  %11 = load ptr, ptr %3, align 8, !tbaa !13
  %12 = getelementptr inbounds nuw %struct.ec_group_st, ptr %11, i32 0, i32 0
  %13 = load ptr, ptr %12, align 8, !tbaa !15
  %14 = call ptr @ec_group_new(ptr noundef %13)
  store ptr %14, ptr %4, align 8, !tbaa !13
  %15 = load ptr, ptr %4, align 8, !tbaa !13
  %16 = icmp eq ptr %15, null
  br i1 %16, label %17, label %18

17:                                               ; preds = %10
  store ptr null, ptr %2, align 8
  store i32 1, ptr %6, align 4
  br label %32

18:                                               ; preds = %10
  %19 = load ptr, ptr %4, align 8, !tbaa !13
  %20 = load ptr, ptr %3, align 8, !tbaa !13
  %21 = call i32 @ec_group_copy(ptr noundef %19, ptr noundef %20)
  %22 = icmp ne i32 %21, 0
  br i1 %22, label %24, label %23

23:                                               ; preds = %18
  br label %25

24:                                               ; preds = %18
  store i32 1, ptr %5, align 4, !tbaa !33
  br label %25

25:                                               ; preds = %24, %23
  %26 = load i32, ptr %5, align 4, !tbaa !33
  %27 = icmp ne i32 %26, 0
  br i1 %27, label %30, label %28

28:                                               ; preds = %25
  %29 = load ptr, ptr %4, align 8, !tbaa !13
  call void @EC_GROUP_free(ptr noundef %29)
  store ptr null, ptr %2, align 8
  store i32 1, ptr %6, align 4
  br label %32

30:                                               ; preds = %25
  %31 = load ptr, ptr %4, align 8, !tbaa !13
  store ptr %31, ptr %2, align 8
  store i32 1, ptr %6, align 4
  br label %32

32:                                               ; preds = %30, %28, %17, %9
  call void @llvm.lifetime.end.p0(i64 4, ptr %5) #7
  call void @llvm.lifetime.end.p0(i64 8, ptr %4) #7
  %33 = load ptr, ptr %2, align 8
  ret ptr %33
}