; Function Attrs: nounwind uwtable
define hidden noundef ptr @EC_GROUP_dup(ptr noundef %0) local_unnamed_addr #1 {
  %2 = icmp eq ptr %0, null
  br i1 %2, label %20, label %3

3:                                                ; preds = %1
  %4 = load ptr, ptr %0, align 8, !tbaa !11
  %5 = tail call ptr @ec_group_new(ptr noundef %4)
  %6 = icmp eq ptr %5, null
  br i1 %6, label %20, label %7

7:                                                ; preds = %3
  %8 = tail call i32 @ec_group_copy(ptr noundef nonnull %5, ptr noundef nonnull %0)
  %.not = icmp eq i32 %8, 0
  br i1 %.not, label %9, label %20

9:                                                ; preds = %7
  %10 = load ptr, ptr %5, align 8, !tbaa !11
  %11 = getelementptr inbounds nuw i8, ptr %10, i64 8
  %12 = load ptr, ptr %11, align 8, !tbaa !20
  %.not9.i = icmp eq ptr %12, null
  br i1 %.not9.i, label %14, label %13

13:                                               ; preds = %9
  tail call void %12(ptr noundef nonnull %5) #11
  br label %14

14:                                               ; preds = %13, %9
  %15 = getelementptr inbounds nuw i8, ptr %5, i64 8
  %16 = load ptr, ptr %15, align 8, !tbaa !21
  %.not.i.i = icmp eq ptr %16, null
  br i1 %.not.i.i, label %EC_GROUP_free.exit, label %17

17:                                               ; preds = %14
  tail call void @ec_GFp_simple_point_finish(ptr noundef nonnull %16) #11
  tail call void @free(ptr noundef nonnull %16) #11
  br label %EC_GROUP_free.exit

EC_GROUP_free.exit:                               ; preds = %14, %17
  %18 = getelementptr inbounds nuw i8, ptr %5, i64 16
  tail call void @BN_free(ptr noundef nonnull %18) #11
  %19 = getelementptr inbounds nuw i8, ptr %5, i64 40
  tail call void @BN_free(ptr noundef nonnull %19) #11
  tail call void @free(ptr noundef nonnull %5) #11
  br label %20

20:                                               ; preds = %7, %3, %1, %EC_GROUP_free.exit
  %.08 = phi ptr [ null, %EC_GROUP_free.exit ], [ null, %1 ], [ null, %3 ], [ %5, %7 ]
  ret ptr %.08
}